target datalayout = "e-m:e-p270:32:32-p271:32:32-p272:64:64-i64:64-i128:128-f80:128-n8:16:32:64-S128"
target triple = "x86_64-pc-linux-gnu"

%struct.ImVec2 = type { float, float }
%struct.ImVector = type { i32, i32, ptr }

; Function Attrs: inlinehint mustprogress uwtable
define linkonce_odr dso_local void @_ZN8ImVectorI6ImVec2E7reserveEi(ptr noundef nonnull align 8 dereferenceable(16) %0, i32 noundef %1) #5 comdat align 2 {
  %3 = alloca ptr, align 8
  %4 = alloca i32, align 4
  %5 = alloca ptr, align 8
  store ptr %0, ptr %3, align 8, !tbaa !36
  store i32 %1, ptr %4, align 4, !tbaa !21
  %6 = load ptr, ptr %3, align 8
  %7 = load i32, ptr %4, align 4, !tbaa !21
  %8 = getelementptr inbounds nuw %struct.ImVector, ptr %6, i32 0, i32 1
  %9 = load i32, ptr %8, align 4, !tbaa !38
  %10 = icmp sle i32 %7, %9
  br i1 %10, label %11, label %12

11:                                               ; preds = %2
  br label %35

12:                                               ; preds = %2
  call void @llvm.lifetime.start.p0(i64 8, ptr %5) #17
  %13 = load i32, ptr %4, align 4, !tbaa !21
  %14 = sext i32 %13 to i64
  %15 = mul i64 %14, 8
  %16 = call noundef ptr @_ZN5ImGui8MemAllocEm(i64 noundef %15)
  store ptr %16, ptr %5, align 8, !tbaa !33
  %17 = getelementptr inbounds nuw %struct.ImVector, ptr %6, i32 0, i32 2
  %18 = load ptr, ptr %17, align 8, !tbaa !40
  %19 = icmp ne ptr %18, null
  br i1 %19, label %20, label %30

20:                                               ; preds = %12
  %21 = load ptr, ptr %5, align 8, !tbaa !33
  %22 = getelementptr inbounds nuw %struct.ImVector, ptr %6, i32 0, i32 2
  %23 = load ptr, ptr %22, align 8, !tbaa !40
  %24 = getelementptr inbounds nuw %struct.ImVector, ptr %6, i32 0, i32 0
  %25 = load i32, ptr %24, align 8, !tbaa !39
  %26 = sext i32 %25 to i64
  %27 = mul i64 %26, 8
  call void @llvm.memcpy.p0.p0.i64(ptr align 4 %21, ptr align 4 %23, i64 %27, i1 false)
  %28 = getelementptr inbounds nuw %struct.ImVector, ptr %6, i32 0, i32 2
  %29 = load ptr, ptr %28, align 8, !tbaa !40
  call void @_ZN5ImGui7MemFreeEPv(ptr noundef %29)
  br label %30

30:                                               ; preds = %20, %12
  %31 = load ptr, ptr %5, align 8, !tbaa !33
  %32 = getelementptr inbounds nuw %struct.ImVector, ptr %6, i32 0, i32 2
  store ptr %31, ptr %32, align 8, !tbaa !40
  %33 = load i32, ptr %4, align 4, !tbaa !21
  %34 = getelementptr inbounds nuw %struct.ImVector, ptr %6, i32 0, i32 1
  store i32 %33, ptr %34, align 4, !tbaa !38
  call void @llvm.lifetime.end.p0(i64 8, ptr %5) #17
  br label %35

35:                                               ; preds = %30, %11
  ret void
}

; Function Attrs: inlinehint mustprogress nounwind uwtable
define linkonce_odr dso_local noundef i32 @_ZNK8ImVectorI6ImVec2E14_grow_capacityEi(ptr noundef nonnull align 8 dereferenceable(16) %0, i32 noundef %1) #7 comdat align 2 {
  %3 = alloca ptr, align 8
  %4 = alloca i32, align 4
  %5 = alloca i32, align 4
  store ptr %0, ptr %3, align 8, !tbaa !36
  store i32 %1, ptr %4, align 4, !tbaa !21
  %6 = load ptr, ptr %3, align 8
  call void @llvm.lifetime.start.p0(i64 4, ptr %5) #17
  %7 = getelementptr inbounds nuw %struct.ImVector, ptr %6, i32 0, i32 1
  %8 = load i32, ptr %7, align 4, !tbaa !38
  %9 = icmp ne i32 %8, 0
  br i1 %9, label %10, label %17

10:                                               ; preds = %2
  %11 = getelementptr inbounds nuw %struct.ImVector, ptr %6, i32 0, i32 1
  %12 = load i32, ptr %11, align 4, !tbaa !38
  %13 = getelementptr inbounds nuw %struct.ImVector, ptr %6, i32 0, i32 1
  %14 = load i32, ptr %13, align 4, !tbaa !38
  %15 = sdiv i32 %14, 2
  %16 = add nsw i32 %12, %15
  br label %18

17:                                               ; preds = %2
  br label %18

18:                                               ; preds = %17, %10
  %19 = phi i32 [ %16, %10 ], [ 8, %17 ]
  store i32 %19, ptr %5, align 4, !tbaa !21
  %20 = load i32, ptr %5, align 4, !tbaa !21
  %21 = load i32, ptr %4, align 4, !tbaa !21
  %22 = icmp sgt i32 %20, %21
  br i1 %22, label %23, label %25

23:                                               ; preds = %18
  %24 = load i32, ptr %5, align 4, !tbaa !21
  br label %27

25:                                               ; preds = %18
  %26 = load i32, ptr %4, align 4, !tbaa !21
  br label %27

27:                                               ; preds = %25, %23
  %28 = phi i32 [ %24, %23 ], [ %26, %25 ]
  call void @llvm.lifetime.end.p0(i64 4, ptr %5) #17
  ret i32 %28
}

; Function Attrs: inlinehint mustprogress uwtable
define linkonce_odr dso_local void @_ZN8ImVectorI6ImVec2E9push_backERKS0_(ptr noundef nonnull align 8 dereferenceable(16) %0, ptr noundef nonnull align 4 dereferenceable(8) %1) #5 comdat align 2 {
  %3 = alloca ptr, align 8
  %4 = alloca ptr, align 8
  store ptr %0, ptr %3, align 8, !tbaa !36
  store ptr %1, ptr %4, align 8, !tbaa !33
  %5 = load ptr, ptr %3, align 8
  %6 = getelementptr inbounds nuw %struct.ImVector, ptr %5, i32 0, i32 0
  %7 = load i32, ptr %6, align 8, !tbaa !39
  %8 = getelementptr inbounds nuw %struct.ImVector, ptr %5, i32 0, i32 1
  %9 = load i32, ptr %8, align 4, !tbaa !38
  %10 = icmp eq i32 %7, %9
  br i1 %10, label %11, label %16

11:                                               ; preds = %2
  %12 = getelementptr inbounds nuw %struct.ImVector, ptr %5, i32 0, i32 0
  %13 = load i32, ptr %12, align 8, !tbaa !39
  %14 = add nsw i32 %13, 1
  %15 = call noundef i32 @_ZNK8ImVectorI6ImVec2E14_grow_capacityEi(ptr noundef nonnull align 8 dereferenceable(16) %5, i32 noundef %14)
  call void @_ZN8ImVectorI6ImVec2E7reserveEi(ptr noundef nonnull align 8 dereferenceable(16) %5, i32 noundef %15)
  br label %16

16:                                               ; preds = %11, %2
  %17 = getelementptr inbounds nuw %struct.ImVector, ptr %5, i32 0, i32 2
  %18 = load ptr, ptr %17, align 8, !tbaa !40
  %19 = getelementptr inbounds nuw %struct.ImVector, ptr %5, i32 0, i32 0
  %20 = load i32, ptr %19, align 8, !tbaa !39
  %21 = sext i32 %20 to i64
  %22 = getelementptr inbounds %struct.ImVec2, ptr %18, i64 %21
  %23 = load ptr, ptr %4, align 8, !tbaa !33
  call void @llvm.memcpy.p0.p0.i64(ptr align 4 %22, ptr align 4 %23, i64 8, i1 false)
  %24 = getelementptr inbounds nuw %struct.ImVector, ptr %5, i32 0, i32 0
  %25 = load i32, ptr %24, align 8, !tbaa !39
  %26 = add nsw i32 %25, 1
  store i32 %26, ptr %24, align 8, !tbaa !39
  ret void
}

; Function Attrs: mustprogress nounwind uwtable
define linkonce_odr dso_local void @_ZN6ImVec2C2Eff(ptr noundef nonnull align 4 dereferenceable(8) %0, float noundef %1, float noundef %2) unnamed_addr #3 comdat align 2 {
  %4 = alloca ptr, align 8
  %5 = alloca float, align 4
  %6 = alloca float, align 4
  store ptr %0, ptr %4, align 8, !tbaa !33
  store float %1, ptr %5, align 4, !tbaa !12
  store float %2, ptr %6, align 4, !tbaa !12
  %7 = load ptr, ptr %4, align 8
  %8 = getelementptr inbounds nuw %struct.ImVec2, ptr %7, i32 0, i32 0
  %9 = load float, ptr %5, align 4, !tbaa !12
  store float %9, ptr %8, align 4, !tbaa !34
  %10 = getelementptr inbounds nuw %struct.ImVec2, ptr %7, i32 0, i32 1
  %11 = load float, ptr %6, align 4, !tbaa !12
  store float %11, ptr %10, align 4, !tbaa !35
  ret void
}

; Function Attrs: mustprogress uwtable
define internal void @_ZL31PathBezierCubicCurveToCasteljauP8ImVectorI6ImVec2Efffffffffi(ptr noundef %0, float noundef %1, float noundef %2, float noundef %3, float noundef %4, float noundef %5, float noundef %6, float noundef %7, float noundef %8, float noundef %9, i32 noundef %10) #6 {
  %12 = alloca ptr, align 8
  %13 = alloca float, align 4
  %14 = alloca float, align 4
  %15 = alloca float, align 4
  %16 = alloca float, align 4
  %17 = alloca float, align 4
  %18 = alloca float, align 4
  %19 = alloca float, align 4
  %20 = alloca float, align 4
  %21 = alloca float, align 4
  %22 = alloca i32, align 4
  %23 = alloca float, align 4
  %24 = alloca float, align 4
  %25 = alloca float, align 4
  %26 = alloca float, align 4
  %27 = alloca %struct.ImVec2, align 4
  %28 = alloca float, align 4
  %29 = alloca float, align 4
  %30 = alloca float, align 4
  %31 = alloca float, align 4
  %32 = alloca float, align 4
  %33 = alloca float, align 4
  %34 = alloca float, align 4
  %35 = alloca float, align 4
  %36 = alloca float, align 4
  %37 = alloca float, align 4
  %38 = alloca float, align 4
  %39 = alloca float, align 4
  store ptr %0, ptr %12, align 8, !tbaa !36
  store float %1, ptr %13, align 4, !tbaa !12
  store float %2, ptr %14, align 4, !tbaa !12
  store float %3, ptr %15, align 4, !tbaa !12
  store float %4, ptr %16, align 4, !tbaa !12
  store float %5, ptr %17, align 4, !tbaa !12
  store float %6, ptr %18, align 4, !tbaa !12
  store float %7, ptr %19, align 4, !tbaa !12
  store float %8, ptr %20, align 4, !tbaa !12
  store float %9, ptr %21, align 4, !tbaa !12
  store i32 %10, ptr %22, align 4, !tbaa !21
  call void @llvm.lifetime.start.p0(i64 4, ptr %23) #17
  %40 = load float, ptr %19, align 4, !tbaa !12
  %41 = load float, ptr %13, align 4, !tbaa !12
  %42 = fsub float %40, %41
  store float %42, ptr %23, align 4, !tbaa !12
  call void @llvm.lifetime.start.p0(i64 4, ptr %24) #17
  %43 = load float, ptr %20, align 4, !tbaa !12
  %44 = load float, ptr %14, align 4, !tbaa !12
  %45 = fsub float %43, %44
  store float %45, ptr %24, align 4, !tbaa !12
  call void @llvm.lifetime.start.p0(i64 4, ptr %25) #17
  %46 = load float, ptr %15, align 4, !tbaa !12
  %47 = load float, ptr %19, align 4, !tbaa !12
  %48 = fsub float %46, %47
  %49 = load float, ptr %24, align 4, !tbaa !12
  %50 = fmul float %48, %49
  %51 = load float, ptr %16, align 4, !tbaa !12
  %52 = load float, ptr %20, align 4, !tbaa !12
  %53 = fsub float %51, %52
  %54 = load float, ptr %23, align 4, !tbaa !12
  %55 = fmul float %53, %54
  %56 = fsub float %50, %55
  store float %56, ptr %25, align 4, !tbaa !12
  call void @llvm.lifetime.start.p0(i64 4, ptr %26) #17
  %57 = load float, ptr %17, align 4, !tbaa !12
  %58 = load float, ptr %19, align 4, !tbaa !12
  %59 = fsub float %57, %58
  %60 = load float, ptr %24, align 4, !tbaa !12
  %61 = fmul float %59, %60
  %62 = load float, ptr %18, align 4, !tbaa !12
  %63 = load float, ptr %20, align 4, !tbaa !12
  %64 = fsub float %62, %63
  %65 = load float, ptr %23, align 4, !tbaa !12
  %66 = fmul float %64, %65
  %67 = fsub float %61, %66
  store float %67, ptr %26, align 4, !tbaa !12
  %68 = load float, ptr %25, align 4, !tbaa !12
  %69 = fcmp oge float %68, 0.000000e+00
  br i1 %69, label %70, label %72

70:                                               ; preds = %11
  %71 = load float, ptr %25, align 4, !tbaa !12
  br label %75

72:                                               ; preds = %11
  %73 = load float, ptr %25, align 4, !tbaa !12
  %74 = fneg float %73
  br label %75

75:                                               ; preds = %72, %70
  %76 = phi float [ %71, %70 ], [ %74, %72 ]
  store float %76, ptr %25, align 4, !tbaa !12
  %77 = load float, ptr %26, align 4, !tbaa !12
  %78 = fcmp oge float %77, 0.000000e+00
  br i1 %78, label %79, label %81

79:                                               ; preds = %75
  %80 = load float, ptr %26, align 4, !tbaa !12
  br label %84

81:                                               ; preds = %75
  %82 = load float, ptr %26, align 4, !tbaa !12
  %83 = fneg float %82
  br label %84

84:                                               ; preds = %81, %79
  %85 = phi float [ %80, %79 ], [ %83, %81 ]
  store float %85, ptr %26, align 4, !tbaa !12
  %86 = load float, ptr %25, align 4, !tbaa !12
  %87 = load float, ptr %26, align 4, !tbaa !12
  %88 = fadd float %86, %87
  %89 = load float, ptr %25, align 4, !tbaa !12
  %90 = load float, ptr %26, align 4, !tbaa !12
  %91 = fadd float %89, %90
  %92 = fmul float %88, %91
  %93 = load float, ptr %21, align 4, !tbaa !12
  %94 = load float, ptr %23, align 4, !tbaa !12
  %95 = load float, ptr %23, align 4, !tbaa !12
  %96 = fmul float %94, %95
  %97 = load float, ptr %24, align 4, !tbaa !12
  %98 = load float, ptr %24, align 4, !tbaa !12
  %99 = fmul float %97, %98
  %100 = fadd float %96, %99
  %101 = fmul float %93, %100
  %102 = fcmp olt float %92, %101
  br i1 %102, label %103, label %107

103:                                              ; preds = %84
  %104 = load ptr, ptr %12, align 8, !tbaa !36
  call void @llvm.lifetime.start.p0(i64 8, ptr %27) #17
  %105 = load float, ptr %19, align 4, !tbaa !12
  %106 = load float, ptr %20, align 4, !tbaa !12
  call void @_ZN6ImVec2C2Eff(ptr noundef nonnull align 4 dereferenceable(8) %27, float noundef %105, float noundef %106)
  call void @_ZN8ImVectorI6ImVec2E9push_backERKS0_(ptr noundef nonnull align 8 dereferenceable(16) %104, ptr noundef nonnull align 4 dereferenceable(8) %27)
  call void @llvm.lifetime.end.p0(i64 8, ptr %27) #17
  br label %184

107:                                              ; preds = %84
  %108 = load i32, ptr %22, align 4, !tbaa !21
  %109 = icmp slt i32 %108, 10
  br i1 %109, label %110, label %183

110:                                              ; preds = %107
  call void @llvm.lifetime.start.p0(i64 4, ptr %28) #17
  %111 = load float, ptr %13, align 4, !tbaa !12
  %112 = load float, ptr %15, align 4, !tbaa !12
  %113 = fadd float %111, %112
  %114 = fmul float %113, 5.000000e-01
  store float %114, ptr %28, align 4, !tbaa !12
  call void @llvm.lifetime.start.p0(i64 4, ptr %29) #17
  %115 = load float, ptr %14, align 4, !tbaa !12
  %116 = load float, ptr %16, align 4, !tbaa !12
  %117 = fadd float %115, %116
  %118 = fmul float %117, 5.000000e-01
  store float %118, ptr %29, align 4, !tbaa !12
  call void @llvm.lifetime.start.p0(i64 4, ptr %30) #17
  %119 = load float, ptr %15, align 4, !tbaa !12
  %120 = load float, ptr %17, align 4, !tbaa !12
  %121 = fadd float %119, %120
  %122 = fmul float %121, 5.000000e-01
  store float %122, ptr %30, align 4, !tbaa !12
  call void @llvm.lifetime.start.p0(i64 4, ptr %31) #17
  %123 = load float, ptr %16, align 4, !tbaa !12
  %124 = load float, ptr %18, align 4, !tbaa !12
  %125 = fadd float %123, %124
  %126 = fmul float %125, 5.000000e-01
  store float %126, ptr %31, align 4, !tbaa !12
  call void @llvm.lifetime.start.p0(i64 4, ptr %32) #17
  %127 = load float, ptr %17, align 4, !tbaa !12
  %128 = load float, ptr %19, align 4, !tbaa !12
  %129 = fadd float %127, %128
  %130 = fmul float %129, 5.000000e-01
  store float %130, ptr %32, align 4, !tbaa !12
  call void @llvm.lifetime.start.p0(i64 4, ptr %33) #17
  %131 = load float, ptr %18, align 4, !tbaa !12
  %132 = load float, ptr %20, align 4, !tbaa !12
  %133 = fadd float %131, %132
  %134 = fmul float %133, 5.000000e-01
  store float %134, ptr %33, align 4, !tbaa !12
  call void @llvm.lifetime.start.p0(i64 4, ptr %34) #17
  %135 = load float, ptr %28, align 4, !tbaa !12
  %136 = load float, ptr %30, align 4, !tbaa !12
  %137 = fadd float %135, %136
  %138 = fmul float %137, 5.000000e-01
  store float %138, ptr %34, align 4, !tbaa !12
  call void @llvm.lifetime.start.p0(i64 4, ptr %35) #17
  %139 = load float, ptr %29, align 4, !tbaa !12
  %140 = load float, ptr %31, align 4, !tbaa !12
  %141 = fadd float %139, %140
  %142 = fmul float %141, 5.000000e-01
  store float %142, ptr %35, align 4, !tbaa !12
  call void @llvm.lifetime.start.p0(i64 4, ptr %36) #17
  %143 = load float, ptr %30, align 4, !tbaa !12
  %144 = load float, ptr %32, align 4, !tbaa !12
  %145 = fadd float %143, %144
  %146 = fmul float %145, 5.000000e-01
  store float %146, ptr %36, align 4, !tbaa !12
  call void @llvm.lifetime.start.p0(i64 4, ptr %37) #17
  %147 = load float, ptr %31, align 4, !tbaa !12
  %148 = load float, ptr %33, align 4, !tbaa !12
  %149 = fadd float %147, %148
  %150 = fmul float %149, 5.000000e-01
  store float %150, ptr %37, align 4, !tbaa !12
  call void @llvm.lifetime.start.p0(i64 4, ptr %38) #17
  %151 = load float, ptr %34, align 4, !tbaa !12
  %152 = load float, ptr %36, align 4, !tbaa !12
  %153 = fadd float %151, %152
  %154 = fmul float %153, 5.000000e-01
  store float %154, ptr %38, align 4, !tbaa !12
  call void @llvm.lifetime.start.p0(i64 4, ptr %39) #17
  %155 = load float, ptr %35, align 4, !tbaa !12
  %156 = load float, ptr %37, align 4, !tbaa !12
  %157 = fadd float %155, %156
  %158 = fmul float %157, 5.000000e-01
  store float %158, ptr %39, align 4, !tbaa !12
  %159 = load ptr, ptr %12, align 8, !tbaa !36
  %160 = load float, ptr %13, align 4, !tbaa !12
  %161 = load float, ptr %14, align 4, !tbaa !12
  %162 = load float, ptr %28, align 4, !tbaa !12
  %163 = load float, ptr %29, align 4, !tbaa !12
  %164 = load float, ptr %34, align 4, !tbaa !12
  %165 = load float, ptr %35, align 4, !tbaa !12
  %166 = load float, ptr %38, align 4, !tbaa !12
  %167 = load float, ptr %39, align 4, !tbaa !12
  %168 = load float, ptr %21, align 4, !tbaa !12
  %169 = load i32, ptr %22, align 4, !tbaa !21
  %170 = add nsw i32 %169, 1
  call void @_ZL31PathBezierCubicCurveToCasteljauP8ImVectorI6ImVec2Efffffffffi(ptr noundef %159, float noundef %160, float noundef %161, float noundef %162, float noundef %163, float noundef %164, float noundef %165, float noundef %166, float noundef %167, float noundef %168, i32 noundef %170)
  %171 = load ptr, ptr %12, align 8, !tbaa !36
  %172 = load float, ptr %38, align 4, !tbaa !12
  %173 = load float, ptr %39, align 4, !tbaa !12
  %174 = load float, ptr %36, align 4, !tbaa !12
  %175 = load float, ptr %37, align 4, !tbaa !12
  %176 = load float, ptr %32, align 4, !tbaa !12
  %177 = load float, ptr %33, align 4, !tbaa !12
  %178 = load float, ptr %19, align 4, !tbaa !12
  %179 = load float, ptr %20, align 4, !tbaa !12
  %180 = load float, ptr %21, align 4, !tbaa !12
  %181 = load i32, ptr %22, align 4, !tbaa !21
  %182 = add nsw i32 %181, 1
  call void @_ZL31PathBezierCubicCurveToCasteljauP8ImVectorI6ImVec2Efffffffffi(ptr noundef %171, float noundef %172, float noundef %173, float noundef %174, float noundef %175, float noundef %176, float noundef %177, float noundef %178, float noundef %179, float noundef %180, i32 noundef %182)
  call void @llvm.lifetime.end.p0(i64 4, ptr %39) #17
  call void @llvm.lifetime.end.p0(i64 4, ptr %38) #17
  call void @llvm.lifetime.end.p0(i64 4, ptr %37) #17
  call void @llvm.lifetime.end.p0(i64 4, ptr %36) #17
  call void @llvm.lifetime.end.p0(i64 4, ptr %35) #17
  call void @llvm.lifetime.end.p0(i64 4, ptr %34) #17
  call void @llvm.lifetime.end.p0(i64 4, ptr %33) #17
  call void @llvm.lifetime.end.p0(i64 4, ptr %32) #17
  call void @llvm.lifetime.end.p0(i64 4, ptr %31) #17
  call void @llvm.lifetime.end.p0(i64 4, ptr %30) #17
  call void @llvm.lifetime.end.p0(i64 4, ptr %29) #17
  call void @llvm.lifetime.end.p0(i64 4, ptr %28) #17
  br label %183

183:                                              ; preds = %110, %107
  br label %184

184:                                              ; preds = %183, %103
  call void @llvm.lifetime.end.p0(i64 4, ptr %26) #17
  call void @llvm.lifetime.end.p0(i64 4, ptr %25) #17
  call void @llvm.lifetime.end.p0(i64 4, ptr %24) #17
  call void @llvm.lifetime.end.p0(i64 4, ptr %23) #17
  ret void
}