; Function Attrs: mustprogress uwtable
define internal fastcc void @_ZL31PathBezierCubicCurveToCasteljauP8ImVectorI6ImVec2Efffffffffi(ptr noundef nonnull captures(none) %0, float noundef %1, float noundef %2, float noundef %3, float noundef %4, float noundef %5, float noundef %6, float noundef %7, float noundef %8, float noundef %9, i32 noundef range(i32 0, 11) %10) unnamed_addr #9 {
  br label %tailrecurse

tailrecurse:                                      ; preds = %67, %11
  %.tr81 = phi float [ %1, %11 ], [ %89, %67 ]
  %.tr82 = phi float [ %2, %11 ], [ %91, %67 ]
  %.tr83 = phi float [ %3, %11 ], [ %85, %67 ]
  %.tr84 = phi float [ %4, %11 ], [ %87, %67 ]
  %.tr85 = phi float [ %5, %11 ], [ %77, %67 ]
  %.tr86 = phi float [ %6, %11 ], [ %79, %67 ]
  %.tr90 = phi i32 [ %10, %11 ], [ %92, %67 ]
  %12 = fsub float %7, %.tr81
  %13 = fsub float %8, %.tr82
  %14 = fsub float %.tr83, %7
  %15 = fmul float %13, %14
  %16 = fsub float %.tr84, %8
  %17 = fmul float %12, %16
  %18 = fsub float %15, %17
  %19 = fsub float %.tr85, %7
  %20 = fmul float %13, %19
  %21 = fsub float %.tr86, %8
  %22 = fmul float %12, %21
  %23 = fsub float %20, %22
  %24 = fcmp oge float %18, 0.000000e+00
  %25 = fneg float %18
  %26 = select i1 %24, float %18, float %25
  %27 = fcmp oge float %23, 0.000000e+00
  %28 = fneg float %23
  %29 = select i1 %27, float %23, float %28
  %30 = fadd float %26, %29
  %31 = fmul float %30, %30
  %32 = fmul float %12, %12
  %33 = fmul float %13, %13
  %34 = fadd float %32, %33
  %35 = fmul float %9, %34
  %36 = fcmp olt float %31, %35
  br i1 %36, label %37, label %66

37:                                               ; preds = %tailrecurse
  %38 = load i32, ptr %0, align 8, !tbaa !62
  %39 = getelementptr inbounds nuw i8, ptr %0, i64 4
  %40 = load i32, ptr %39, align 4, !tbaa !60
  %41 = icmp eq i32 %38, %40
  br i1 %41, label %42, label %._ZN8ImVectorI6ImVec2E7reserveEi.exit_crit_edge.i

._ZN8ImVectorI6ImVec2E7reserveEi.exit_crit_edge.i: ; preds = %37
  %.phi.trans.insert.i = getelementptr inbounds nuw i8, ptr %0, i64 8
  %.pre.i = load ptr, ptr %.phi.trans.insert.i, align 8, !tbaa !61
  br label %_ZN8ImVectorI6ImVec2E9push_backERKS0_.exit

42:                                               ; preds = %37
  %43 = add nsw i32 %38, 1
  %.not.i.i = icmp eq i32 %38, 0
  br i1 %.not.i.i, label %_ZNK8ImVectorI6ImVec2E14_grow_capacityEi.exit.i, label %44

44:                                               ; preds = %42
  %45 = sdiv i32 %38, 2
  %46 = add nsw i32 %45, %38
  br label %_ZNK8ImVectorI6ImVec2E14_grow_capacityEi.exit.i

_ZNK8ImVectorI6ImVec2E14_grow_capacityEi.exit.i:  ; preds = %44, %42
  %47 = phi i32 [ %46, %44 ], [ 8, %42 ]
  %48 = tail call noundef i32 @llvm.smax.i32(i32 %47, i32 %43)
  %49 = sext i32 %48 to i64
  %50 = shl nsw i64 %49, 3
  %51 = tail call noundef ptr @_ZN5ImGui8MemAllocEm(i64 noundef %50)
  %52 = getelementptr inbounds nuw i8, ptr %0, i64 8
  %53 = load ptr, ptr %52, align 8, !tbaa !61
  %.not6.i.i = icmp eq ptr %53, null
  br i1 %.not6.i.i, label %59, label %54

54:                                               ; preds = %_ZNK8ImVectorI6ImVec2E14_grow_capacityEi.exit.i
  %55 = load i32, ptr %0, align 8, !tbaa !62
  %56 = sext i32 %55 to i64
  %57 = shl nsw i64 %56, 3
  tail call void @llvm.memcpy.p0.p0.i64(ptr align 4 %51, ptr nonnull align 4 %53, i64 %57, i1 false)
  %58 = load ptr, ptr %52, align 8, !tbaa !61
  tail call void @_ZN5ImGui7MemFreeEPv(ptr noundef %58)
  br label %59

59:                                               ; preds = %54, %_ZNK8ImVectorI6ImVec2E14_grow_capacityEi.exit.i
  store ptr %51, ptr %52, align 8, !tbaa !61
  store i32 %48, ptr %39, align 4, !tbaa !60
  %.pre3.i = load i32, ptr %0, align 8, !tbaa !62
  br label %_ZN8ImVectorI6ImVec2E9push_backERKS0_.exit

_ZN8ImVectorI6ImVec2E9push_backERKS0_.exit:       ; preds = %._ZN8ImVectorI6ImVec2E7reserveEi.exit_crit_edge.i, %59
  %60 = phi i32 [ %38, %._ZN8ImVectorI6ImVec2E7reserveEi.exit_crit_edge.i ], [ %.pre3.i, %59 ]
  %61 = phi ptr [ %.pre.i, %._ZN8ImVectorI6ImVec2E7reserveEi.exit_crit_edge.i ], [ %51, %59 ]
  %62 = sext i32 %60 to i64
  %63 = getelementptr inbounds %struct.ImVec2, ptr %61, i64 %62
  store float %7, ptr %63, align 4
  %.sroa_idx80 = getelementptr inbounds nuw i8, ptr %63, i64 4
  store float %8, ptr %.sroa_idx80, align 4
  %64 = load i32, ptr %0, align 8, !tbaa !62
  %65 = add nsw i32 %64, 1
  store i32 %65, ptr %0, align 8, !tbaa !62
  br label %.loopexit

66:                                               ; preds = %tailrecurse
  %exitcond.not = icmp eq i32 %.tr90, 10
  br i1 %exitcond.not, label %.loopexit, label %67

67:                                               ; preds = %66
  %68 = fadd float %.tr81, %.tr83
  %69 = fmul float %68, 5.000000e-01
  %70 = fadd float %.tr82, %.tr84
  %71 = fmul float %70, 5.000000e-01
  %72 = fadd float %.tr83, %.tr85
  %73 = fmul float %72, 5.000000e-01
  %74 = fadd float %.tr84, %.tr86
  %75 = fmul float %74, 5.000000e-01
  %76 = fadd float %7, %.tr85
  %77 = fmul float %76, 5.000000e-01
  %78 = fadd float %8, %.tr86
  %79 = fmul float %78, 5.000000e-01
  %80 = fadd float %69, %73
  %81 = fmul float %80, 5.000000e-01
  %82 = fadd float %71, %75
  %83 = fmul float %82, 5.000000e-01
  %84 = fadd float %73, %77
  %85 = fmul float %84, 5.000000e-01
  %86 = fadd float %75, %79
  %87 = fmul float %86, 5.000000e-01
  %88 = fadd float %81, %85
  %89 = fmul float %88, 5.000000e-01
  %90 = fadd float %83, %87
  %91 = fmul float %90, 5.000000e-01
  %92 = add nuw nsw i32 %.tr90, 1
  tail call fastcc void @_ZL31PathBezierCubicCurveToCasteljauP8ImVectorI6ImVec2Efffffffffi(ptr noundef %0, float noundef %.tr81, float noundef %.tr82, float noundef %69, float noundef %71, float noundef %81, float noundef %83, float noundef %89, float noundef %91, float noundef %9, i32 noundef %92)
  br label %tailrecurse

.loopexit:                                        ; preds = %66, %_ZN8ImVectorI6ImVec2E9push_backERKS0_.exit
  ret void
}